; Function Attrs: mustprogress nofree norecurse nosync nounwind willreturn memory(read, inaccessiblemem: none) uwtable
define noundef zeroext i1 @_ZN17RichParameterListeqERKS_(ptr noundef nonnull readonly align 8 dereferenceable(24) %0, ptr nocapture noundef nonnull readonly align 8 dereferenceable(24) %1) local_unnamed_addr #16 align 2 personality ptr @__gxx_personality_v0 {
  %3 = getelementptr inbounds i8, ptr %1, i64 16
  %4 = load i64, ptr %3, align 8
  %5 = getelementptr inbounds i8, ptr %0, i64 16
  %6 = load i64, ptr %5, align 8
  %.not = icmp eq i64 %4, %6
  br i1 %.not, label %.preheader, label %.loopexit

.preheader:                                       ; preds = %2
  %.sroa.011.014 = load ptr, ptr %0, align 8
  %.not18 = icmp eq ptr %.sroa.011.014, %0
  br i1 %.not18, label %.loopexit, label %.lr.ph

.lr.ph:                                           ; preds = %.preheader, %.lr.ph
  %.sroa.011.017 = phi ptr [ %.sroa.011.0, %.lr.ph ], [ %.sroa.011.014, %.preheader ]
  %.sroa.08.0.in15 = phi ptr [ %.sroa.08.0, %.lr.ph ], [ %1, %.preheader ]
  %.sroa.08.0 = load ptr, ptr %.sroa.08.0.in15, align 8
  %7 = getelementptr inbounds i8, ptr %.sroa.011.017, i64 16
  %8 = load ptr, ptr %7, align 8
  %9 = getelementptr inbounds i8, ptr %.sroa.08.0, i64 16
  %10 = load ptr, ptr %9, align 8
  %.not6 = icmp eq ptr %8, %10
  %.sroa.011.0 = load ptr, ptr %.sroa.011.017, align 8
  %11 = icmp ne ptr %.sroa.011.0, %0
  %12 = select i1 %11, i1 %.not6, i1 false
  br i1 %12, label %.lr.ph, label %.loopexit, !llvm.loop !30

.loopexit:                                        ; preds = %.lr.ph, %.preheader, %2
  %.05 = phi i1 [ false, %2 ], [ true, %.preheader ], [ %.not6, %.lr.ph ]
  ret i1 %.05
}